target datalayout = "e-m:e-p270:32:32-p271:32:32-p272:64:64-i64:64-i128:128-f80:128-n8:16:32:64-S128"
target triple = "x86_64-pc-linux-gnu"

%struct.PlatformTarget = type { ptr, i32, ptr, ptr, i32, i32, i32, i32, i32, i32, i32, [7 x %struct.AlignData], [7 x %struct.AlignData], [7 x %struct.AlignData], i32, i16, %union.anon.88, i8, i8, i8, i8, i8, i8, i8, i8, i8, i8, %struct.AlignData, i32, i32, i32, i32, i32, i32, i32, i32, i32, i32, i32, i32, i32, i32, i32, i32, ptr }
%union.anon.88 = type { %struct.anon.90 }
%struct.anon.90 = type { %struct.X86Features, i32, i32 }
%struct.X86Features = type { [2 x i64], ptr }
%struct.AlignData = type { i32, i32 }
%struct.Type_ = type { i32, ptr, ptr, ptr, %union.anon.85, ptr, ptr, %union.anon.87 }
%union.anon.85 = type { ptr }
%union.anon.87 = type { %struct.TypeFunction }
%struct.TypeFunction = type { ptr, ptr, ptr }
%struct.TypeArray = type { ptr, i32 }

@platform_target = external global %struct.PlatformTarget, align 8
@.str = private unnamed_addr constant [36 x i8] c"FATAL ERROR %s -> in %s @ in %s:%d \00", align 1
@.str.1 = private unnamed_addr constant [22 x i8] c"Should be unreachable\00", align 1
@.str.2 = private unnamed_addr constant [114 x i8] c"generated/home/dtcxzyw/WorkSpace/Projects/compilers/llvm-opt-benchmark/bench/c3c/c3c/src/compiler/abi/c_abi_x64.c\00", align 1
@__func__.x64_merge = private unnamed_addr constant [10 x i8] c"x64_merge\00", align 1

; Function Attrs: nounwind uwtable
define internal i32 @x64_merge(i32 noundef %0, i32 noundef %1) #0 {
  %3 = alloca i32, align 4
  %4 = alloca i32, align 4
  %5 = alloca i32, align 4
  %6 = alloca i32, align 4
  store i32 %0, ptr %4, align 4
  store i32 %1, ptr %5, align 4
  %7 = load i32, ptr %4, align 4
  %8 = load i32, ptr %5, align 4
  %9 = icmp eq i32 %7, %8
  br i1 %9, label %10, label %12

10:                                               ; preds = %2
  %11 = load i32, ptr %4, align 4
  store i32 %11, ptr %3, align 4
  br label %29

12:                                               ; preds = %2
  %13 = load i32, ptr %4, align 4
  %14 = load i32, ptr %5, align 4
  %15 = icmp ugt i32 %13, %14
  br i1 %15, label %16, label %20

16:                                               ; preds = %12
  %17 = load i32, ptr %5, align 4
  store i32 %17, ptr %6, align 4
  %18 = load i32, ptr %4, align 4
  store i32 %18, ptr %5, align 4
  %19 = load i32, ptr %6, align 4
  store i32 %19, ptr %4, align 4
  br label %20

20:                                               ; preds = %16, %12
  %21 = load i32, ptr %4, align 4
  switch i32 %21, label %27 [
    i32 0, label %22
    i32 1, label %24
    i32 2, label %25
    i32 4, label %26
    i32 3, label %26
  ]

22:                                               ; preds = %20
  %23 = load i32, ptr %5, align 4
  store i32 %23, ptr %3, align 4
  br label %29

24:                                               ; preds = %20
  store i32 1, ptr %3, align 4
  br label %29

25:                                               ; preds = %20
  store i32 2, ptr %3, align 4
  br label %29

26:                                               ; preds = %20, %20
  store i32 3, ptr %3, align 4
  br label %29

27:                                               ; preds = %20
  br label %28

28:                                               ; preds = %27
  call void (ptr, ...) @error_exit(ptr noundef @.str, ptr noundef @.str.1, ptr noundef @__func__.x64_merge, ptr noundef @.str.2, i32 noundef 203) #5
  unreachable

29:                                               ; preds = %26, %25, %24, %22, %10
  %30 = load i32, ptr %3, align 4
  ret i32 %30
}

; Function Attrs: nounwind uwtable
define dso_local void @x64_classify_post_merge(i64 noundef %0, ptr noundef %1, ptr noundef %2) #0 {
  %4 = alloca i64, align 8
  %5 = alloca ptr, align 8
  %6 = alloca ptr, align 8
  store i64 %0, ptr %4, align 8
  store ptr %1, ptr %5, align 8
  store ptr %2, ptr %6, align 8
  %7 = load ptr, ptr %6, align 8
  %8 = load i32, ptr %7, align 4
  %9 = icmp eq i32 %8, 1
  br i1 %9, label %10, label %11

10:                                               ; preds = %3
  br label %38

11:                                               ; preds = %3
  %12 = load i64, ptr %4, align 8
  %13 = icmp ugt i64 %12, 16
  br i1 %13, label %14, label %23

14:                                               ; preds = %11
  %15 = load ptr, ptr %5, align 8
  %16 = load i32, ptr %15, align 4
  %17 = icmp ne i32 %16, 3
  br i1 %17, label %22, label %18

18:                                               ; preds = %14
  %19 = load ptr, ptr %6, align 8
  %20 = load i32, ptr %19, align 4
  %21 = icmp ne i32 %20, 4
  br i1 %21, label %22, label %23

22:                                               ; preds = %18, %14
  br label %38

23:                                               ; preds = %18, %11
  %24 = load ptr, ptr %6, align 8
  %25 = load i32, ptr %24, align 4
  %26 = icmp eq i32 %25, 4
  br i1 %26, label %27, label %37

27:                                               ; preds = %23
  %28 = load ptr, ptr %5, align 8
  %29 = load i32, ptr %28, align 4
  %30 = icmp ne i32 %29, 3
  br i1 %30, label %31, label %37

31:                                               ; preds = %27
  %32 = load ptr, ptr %5, align 8
  %33 = load i32, ptr %32, align 4
  %34 = icmp ne i32 %33, 4
  br i1 %34, label %35, label %37

35:                                               ; preds = %31
  %36 = load ptr, ptr %6, align 8
  store i32 3, ptr %36, align 4
  br label %37

37:                                               ; preds = %35, %31, %27, %23
  br label %40

38:                                               ; preds = %22, %10
  %39 = load ptr, ptr %5, align 8
  store i32 1, ptr %39, align 4
  br label %40

40:                                               ; preds = %38, %37
  ret void
}

; Function Attrs: nounwind uwtable
define dso_local void @x64_classify_array(ptr noundef %0, i64 noundef %1, ptr noundef %2, ptr noundef %3, ptr noundef %4, i32 noundef %5) #0 {
  %7 = alloca ptr, align 8
  %8 = alloca i64, align 8
  %9 = alloca ptr, align 8
  %10 = alloca ptr, align 8
  %11 = alloca ptr, align 8
  %12 = alloca i32, align 4
  %13 = alloca i64, align 8
  %14 = alloca ptr, align 8
  %15 = alloca i64, align 8
  %16 = alloca i64, align 8
  %17 = alloca i32, align 4
  %18 = alloca i32, align 4
  %19 = alloca i32, align 4
  store ptr %0, ptr %7, align 8
  store i64 %1, ptr %8, align 8
  store ptr %2, ptr %9, align 8
  store ptr %3, ptr %10, align 8
  store ptr %4, ptr %11, align 8
  store i32 %5, ptr %12, align 4
  %20 = load ptr, ptr %7, align 8
  %21 = call i32 @type_size(ptr noundef %20)
  %22 = zext i32 %21 to i64
  store i64 %22, ptr %13, align 8
  %23 = load ptr, ptr %7, align 8
  %24 = getelementptr inbounds %struct.Type_, ptr %23, i32 0, i32 7
  %25 = getelementptr inbounds %struct.TypeArray, ptr %24, i32 0, i32 0
  %26 = load ptr, ptr %25, align 8
  store ptr %26, ptr %14, align 8
  %27 = load ptr, ptr %14, align 8
  %28 = call i32 @type_size(ptr noundef %27)
  %29 = zext i32 %28 to i64
  store i64 %29, ptr %15, align 8
  %30 = load i64, ptr %13, align 8
  %31 = icmp ugt i64 %30, 64
  br i1 %31, label %32, label %33

32:                                               ; preds = %6
  br label %104

33:                                               ; preds = %6
  %34 = load i64, ptr %8, align 8
  %35 = load ptr, ptr %14, align 8
  %36 = call i32 @type_abi_alignment(ptr noundef %35)
  %37 = zext i32 %36 to i64
  %38 = urem i64 %34, %37
  %39 = icmp ne i64 %38, 0
  br i1 %39, label %40, label %45

40:                                               ; preds = %33
  %41 = load ptr, ptr %10, align 8
  store i32 1, ptr %41, align 4
  %42 = load i64, ptr %13, align 8
  %43 = load ptr, ptr %10, align 8
  %44 = load ptr, ptr %11, align 8
  call void @x64_classify_post_merge(i64 noundef %42, ptr noundef %43, ptr noundef %44)
  br label %104

45:                                               ; preds = %33
  %46 = load ptr, ptr %9, align 8
  store i32 0, ptr %46, align 4
  %47 = load i64, ptr %13, align 8
  %48 = icmp ugt i64 %47, 16
  br i1 %48, label %49, label %62

49:                                               ; preds = %45
  %50 = load i64, ptr %13, align 8
  %51 = load ptr, ptr %14, align 8
  %52 = call i32 @type_size(ptr noundef %51)
  %53 = zext i32 %52 to i64
  %54 = icmp ne i64 %50, %53
  br i1 %54, label %60, label %55

55:                                               ; preds = %49
  %56 = load i64, ptr %13, align 8
  %57 = load i32, ptr getelementptr inbounds (%struct.anon.90, ptr getelementptr inbounds (%struct.PlatformTarget, ptr @platform_target, i32 0, i32 16), i32 0, i32 2), align 4
  %58 = sext i32 %57 to i64
  %59 = icmp ugt i64 %56, %58
  br i1 %59, label %60, label %62

60:                                               ; preds = %55, %49
  %61 = load ptr, ptr %10, align 8
  store i32 1, ptr %61, align 4
  br label %104

62:                                               ; preds = %55, %45
  %63 = load i64, ptr %8, align 8
  store i64 %63, ptr %16, align 8
  store i32 0, ptr %17, align 4
  br label %64

64:                                               ; preds = %97, %62
  %65 = load i32, ptr %17, align 4
  %66 = load ptr, ptr %7, align 8
  %67 = getelementptr inbounds %struct.Type_, ptr %66, i32 0, i32 7
  %68 = getelementptr inbounds %struct.TypeArray, ptr %67, i32 0, i32 1
  %69 = load i32, ptr %68, align 8
  %70 = icmp ult i32 %65, %69
  br i1 %70, label %71, label %100

71:                                               ; preds = %64
  %72 = load ptr, ptr %14, align 8
  %73 = load i64, ptr %16, align 8
  %74 = load i32, ptr %12, align 4
  call void @x64_classify(ptr noundef %72, i64 noundef %73, ptr noundef %18, ptr noundef %19, i32 noundef %74)
  %75 = load i64, ptr %15, align 8
  %76 = load i64, ptr %16, align 8
  %77 = add i64 %76, %75
  store i64 %77, ptr %16, align 8
  %78 = load ptr, ptr %10, align 8
  %79 = load i32, ptr %78, align 4
  %80 = load i32, ptr %18, align 4
  %81 = call i32 @x64_merge(i32 noundef %79, i32 noundef %80)
  %82 = load ptr, ptr %10, align 8
  store i32 %81, ptr %82, align 4
  %83 = load ptr, ptr %11, align 8
  %84 = load i32, ptr %83, align 4
  %85 = load i32, ptr %19, align 4
  %86 = call i32 @x64_merge(i32 noundef %84, i32 noundef %85)
  %87 = load ptr, ptr %11, align 8
  store i32 %86, ptr %87, align 4
  %88 = load ptr, ptr %10, align 8
  %89 = load i32, ptr %88, align 4
  %90 = icmp eq i32 %89, 1
  br i1 %90, label %95, label %91

91:                                               ; preds = %71
  %92 = load ptr, ptr %11, align 8
  %93 = load i32, ptr %92, align 4
  %94 = icmp eq i32 %93, 1
  br i1 %94, label %95, label %96

95:                                               ; preds = %91, %71
  br label %100

96:                                               ; preds = %91
  br label %97

97:                                               ; preds = %96
  %98 = load i32, ptr %17, align 4
  %99 = add i32 %98, 1
  store i32 %99, ptr %17, align 4
  br label %64, !llvm.loop !10

100:                                              ; preds = %95, %64
  %101 = load i64, ptr %13, align 8
  %102 = load ptr, ptr %10, align 8
  %103 = load ptr, ptr %11, align 8
  call void @x64_classify_post_merge(i64 noundef %101, ptr noundef %102, ptr noundef %103)
  br label %104

104:                                              ; preds = %100, %60, %40, %32
  ret void
}