; Function Attrs: nounwind uwtable
define dso_local void @x64_classify_array(ptr noundef %0, i64 noundef %1, ptr nocapture noundef writeonly %2, ptr nocapture noundef %3, ptr nocapture noundef %4, i32 noundef %5) local_unnamed_addr #1 {
  %7 = alloca i32, align 4
  %8 = alloca i32, align 4
  %9 = tail call i32 @type_size(ptr noundef %0) #7
  %10 = zext i32 %9 to i64
  %11 = getelementptr inbounds i8, ptr %0, i64 56
  %12 = load ptr, ptr %11, align 8
  %13 = tail call i32 @type_size(ptr noundef %12) #7
  %14 = zext i32 %13 to i64
  %15 = icmp ugt i32 %9, 64
  br i1 %15, label %x64_classify_post_merge.exit, label %16

16:                                               ; preds = %6
  %17 = tail call i32 @type_abi_alignment(ptr noundef %12) #7
  %18 = zext i32 %17 to i64
  %19 = urem i64 %1, %18
  %.not = icmp eq i64 %19, 0
  br i1 %.not, label %24, label %20

20:                                               ; preds = %16
  store i32 1, ptr %3, align 4
  %21 = load i32, ptr %4, align 4
  %22 = icmp ult i32 %9, 17
  %23 = icmp eq i32 %21, 4
  %or.cond58 = select i1 %23, i1 %22, i1 false
  br i1 %or.cond58, label %.thread.i, label %x64_classify_post_merge.exit

.thread.i:                                        ; preds = %20
  store i32 3, ptr %4, align 4
  br label %x64_classify_post_merge.exit

24:                                               ; preds = %16
  store i32 0, ptr %2, align 4
  %25 = icmp ugt i32 %9, 16
  br i1 %25, label %26, label %32

26:                                               ; preds = %24
  %27 = tail call i32 @type_size(ptr noundef %12) #7
  %.not35 = icmp ne i32 %9, %27
  %28 = load i32, ptr getelementptr inbounds (%struct.PlatformTarget, ptr @platform_target, i64 0, i32 16, i32 0, i32 2), align 4
  %29 = sext i32 %28 to i64
  %30 = icmp ugt i64 %10, %29
  %or.cond = select i1 %.not35, i1 true, i1 %30
  br i1 %or.cond, label %31, label %32

31:                                               ; preds = %26
  store i32 1, ptr %3, align 4
  br label %x64_classify_post_merge.exit

32:                                               ; preds = %26, %24
  %33 = getelementptr inbounds i8, ptr %0, i64 64
  %34 = load i32, ptr %33, align 8
  %.not54 = icmp eq i32 %34, 0
  br i1 %.not54, label %.thread-pre-split_crit_edge, label %.lr.ph

.thread-pre-split_crit_edge:                      ; preds = %32
  %.pr.pre = load i32, ptr %4, align 4
  br label %.loopexit

35:                                               ; preds = %x64_merge.exit42
  %36 = add nuw i32 %.053, 1
  %37 = load i32, ptr %33, align 8
  %38 = icmp ult i32 %36, %37
  br i1 %38, label %.lr.ph, label %.loopexit.thread, !llvm.loop !10

.lr.ph:                                           ; preds = %32, %35
  %.053 = phi i32 [ %36, %35 ], [ 0, %32 ]
  %.03352 = phi i64 [ %39, %35 ], [ %1, %32 ]
  call fastcc void @x64_classify(ptr noundef %12, i64 noundef %.03352, ptr noundef nonnull %7, ptr noundef nonnull %8, i32 noundef %5)
  %39 = add i64 %.03352, %14
  %40 = load i32, ptr %3, align 4
  %41 = load i32, ptr %7, align 4
  %42 = icmp eq i32 %40, %41
  br i1 %42, label %x64_merge.exit, label %43

43:                                               ; preds = %.lr.ph
  %spec.select.i = tail call i32 @llvm.umin.i32(i32 %40, i32 %41)
  %spec.select15.i = tail call i32 @llvm.umax.i32(i32 %40, i32 %41)
  switch i32 %spec.select.i, label %47 [
    i32 0, label %x64_merge.exit
    i32 1, label %44
    i32 2, label %45
    i32 4, label %46
    i32 3, label %46
  ]

44:                                               ; preds = %43
  br label %x64_merge.exit

45:                                               ; preds = %43
  br label %x64_merge.exit

46:                                               ; preds = %43, %43
  br label %x64_merge.exit

47:                                               ; preds = %43
  tail call void (ptr, ...) @error_exit(ptr noundef nonnull @.str, ptr noundef nonnull @.str.1, ptr noundef nonnull @__func__.x64_merge, ptr noundef nonnull @.str.2, i32 noundef 203) #8
  unreachable

x64_merge.exit:                                   ; preds = %.lr.ph, %43, %44, %45, %46
  %.0.i = phi i32 [ 3, %46 ], [ %spec.select.i, %45 ], [ %spec.select.i, %44 ], [ %40, %.lr.ph ], [ %spec.select15.i, %43 ]
  store i32 %.0.i, ptr %3, align 4
  %48 = load i32, ptr %4, align 4
  %49 = load i32, ptr %8, align 4
  %50 = icmp eq i32 %48, %49
  br i1 %50, label %x64_merge.exit42, label %51

51:                                               ; preds = %x64_merge.exit
  %spec.select.i39 = tail call i32 @llvm.umin.i32(i32 %48, i32 %49)
  %spec.select15.i40 = tail call i32 @llvm.umax.i32(i32 %48, i32 %49)
  switch i32 %spec.select.i39, label %54 [
    i32 0, label %x64_merge.exit42
    i32 1, label %.thread
    i32 2, label %52
    i32 4, label %53
    i32 3, label %53
  ]

.thread:                                          ; preds = %51
  store i32 1, ptr %4, align 4
  br label %68

52:                                               ; preds = %51
  br label %x64_merge.exit42

53:                                               ; preds = %51, %51
  br label %x64_merge.exit42

54:                                               ; preds = %51
  tail call void (ptr, ...) @error_exit(ptr noundef nonnull @.str, ptr noundef nonnull @.str.1, ptr noundef nonnull @__func__.x64_merge, ptr noundef nonnull @.str.2, i32 noundef 203) #8
  unreachable

x64_merge.exit42:                                 ; preds = %x64_merge.exit, %51, %52, %53
  %.0.i41 = phi i32 [ 3, %53 ], [ 2, %52 ], [ %48, %x64_merge.exit ], [ %spec.select15.i40, %51 ]
  store i32 %.0.i41, ptr %4, align 4
  %55 = load i32, ptr %3, align 4
  %56 = icmp eq i32 %55, 1
  %57 = icmp eq i32 %.0.i41, 1
  %or.cond38 = or i1 %57, %56
  br i1 %or.cond38, label %.loopexit, label %35

.loopexit:                                        ; preds = %x64_merge.exit42, %.thread-pre-split_crit_edge
  %58 = phi i32 [ %.pr.pre, %.thread-pre-split_crit_edge ], [ %.0.i41, %x64_merge.exit42 ]
  %59 = icmp eq i32 %58, 1
  br i1 %59, label %68, label %.loopexit.thread

.loopexit.thread:                                 ; preds = %35, %.loopexit
  %60 = phi i32 [ %58, %.loopexit ], [ %.0.i41, %35 ]
  br i1 %25, label %61, label %63

61:                                               ; preds = %.loopexit.thread
  %62 = load i32, ptr %3, align 4
  %.not.i45 = icmp eq i32 %62, 3
  %.not9.i46 = icmp eq i32 %60, 4
  %or.cond.i47 = and i1 %.not9.i46, %.not.i45
  br i1 %or.cond.i47, label %x64_classify_post_merge.exit, label %68

63:                                               ; preds = %.loopexit.thread
  %64 = icmp eq i32 %60, 4
  br i1 %64, label %.thread.i43, label %x64_classify_post_merge.exit

.thread.i43:                                      ; preds = %63
  %.pre.i44 = load i32, ptr %3, align 4
  %65 = add i32 %.pre.i44, -3
  %66 = icmp ult i32 %65, 2
  br i1 %66, label %x64_classify_post_merge.exit, label %67

67:                                               ; preds = %.thread.i43
  store i32 3, ptr %4, align 4
  br label %x64_classify_post_merge.exit

68:                                               ; preds = %.thread, %61, %.loopexit
  store i32 1, ptr %3, align 4
  br label %x64_classify_post_merge.exit

x64_classify_post_merge.exit:                     ; preds = %20, %68, %67, %.thread.i43, %63, %61, %.thread.i, %6, %31
  ret void
}